target datalayout = "e-m:e-p270:32:32-p271:32:32-p272:64:64-i64:64-i128:128-f80:128-n8:16:32:64-S128"
target triple = "x86_64-pc-linux-gnu"

@.str.3 = private unnamed_addr constant [31 x i8] c"/proc/sys/vm/overcommit_memory\00", align 1
@.str.4 = private unnamed_addr constant [2 x i8] c"r\00", align 1

; Function Attrs: nounwind uwtable
define dso_local i32 @checkOvercommit(ptr noundef %0) #0 {
  %2 = alloca i32, align 4
  %3 = alloca ptr, align 8
  %4 = alloca ptr, align 8
  %5 = alloca [64 x i8], align 16
  %6 = alloca i32, align 4
  store ptr %0, ptr %3, align 8, !tbaa !5
  call void @llvm.lifetime.start.p0(i64 8, ptr %4) #5
  %7 = call noalias ptr @fopen64(ptr noundef @.str.3, ptr noundef @.str.4)
  store ptr %7, ptr %4, align 8, !tbaa !14
  call void @llvm.lifetime.start.p0(i64 64, ptr %5) #5
  %8 = load ptr, ptr %4, align 8, !tbaa !14
  %9 = icmp ne ptr %8, null
  br i1 %9, label %11, label %10

10:                                               ; preds = %1
  store i32 0, ptr %2, align 4
  store i32 1, ptr %6, align 4
  br label %29

11:                                               ; preds = %1
  %12 = getelementptr inbounds [64 x i8], ptr %5, i64 0, i64 0
  %13 = load ptr, ptr %4, align 8, !tbaa !14
  %14 = call ptr @fgets(ptr noundef %12, i32 noundef 64, ptr noundef %13)
  %15 = icmp eq ptr %14, null
  br i1 %15, label %16, label %19

16:                                               ; preds = %11
  %17 = load ptr, ptr %4, align 8, !tbaa !14
  %18 = call i32 @fclose(ptr noundef %17)
  store i32 0, ptr %2, align 4
  store i32 1, ptr %6, align 4
  br label %29

19:                                               ; preds = %11
  %20 = load ptr, ptr %4, align 8, !tbaa !14
  %21 = call i32 @fclose(ptr noundef %20)
  %22 = getelementptr inbounds [64 x i8], ptr %5, i64 0, i64 0
  %23 = call i64 @strtol(ptr noundef %22, ptr noundef null, i32 noundef 10) #5
  %24 = icmp ne i64 %23, 1
  br i1 %24, label %25, label %28

25:                                               ; preds = %19
  %26 = call ptr @sdsnew(ptr noundef @.str.5)
  %27 = load ptr, ptr %3, align 8, !tbaa !5
  store ptr %26, ptr %27, align 8, !tbaa !10
  store i32 -1, ptr %2, align 4
  store i32 1, ptr %6, align 4
  br label %29

28:                                               ; preds = %19
  store i32 1, ptr %2, align 4
  store i32 1, ptr %6, align 4
  br label %29

29:                                               ; preds = %28, %25, %16, %10
  call void @llvm.lifetime.end.p0(i64 64, ptr %5) #5
  call void @llvm.lifetime.end.p0(i64 8, ptr %4) #5
  %30 = load i32, ptr %2, align 4
  ret i32 %30
}