; Function Attrs: nounwind uwtable
define dso_local range(i32 -1, 2) i32 @checkOvercommit(ptr noundef writeonly captures(none) %0) #0 {
  %2 = alloca [64 x i8], align 16
  %3 = tail call noalias ptr @fopen64(ptr noundef nonnull @.str.3, ptr noundef nonnull @.str.4)
  call void @llvm.lifetime.start.p0(i64 64, ptr nonnull %2) #8
  %.not = icmp eq ptr %3, null
  br i1 %.not, label %12, label %4

4:                                                ; preds = %1
  %5 = call ptr @fgets(ptr noundef nonnull %2, i32 noundef 64, ptr noundef nonnull %3)
  %6 = icmp eq ptr %5, null
  %7 = call i32 @fclose(ptr noundef nonnull %3)
  br i1 %6, label %12, label %8

8:                                                ; preds = %4
  %9 = call i64 @strtol(ptr noundef nonnull captures(none) %2, ptr noundef null, i32 noundef 10) #8
  %.not6 = icmp eq i64 %9, 1
  br i1 %.not6, label %12, label %10

10:                                               ; preds = %8
  %11 = call ptr @sdsnew(ptr noundef nonnull @.str.5) #8
  store ptr %11, ptr %0, align 8, !tbaa !5
  br label %12

12:                                               ; preds = %4, %8, %1, %10
  %.0 = phi i32 [ -1, %10 ], [ 0, %1 ], [ 1, %8 ], [ 0, %4 ]
  call void @llvm.lifetime.end.p0(i64 64, ptr nonnull %2) #8
  ret i32 %.0
}